target datalayout = "e-m:e-p270:32:32-p271:32:32-p272:64:64-i64:64-i128:128-f80:128-n8:16:32:64-S128"
target triple = "x86_64-pc-linux-gnu"

%"class.arrow_vendored::double_conversion::Bignum" = type { i16, i16, [128 x i32] }

; Function Attrs: mustprogress nounwind uwtable
define void @_ZN14arrow_vendored17double_conversion6Bignum5ClampEv(ptr noundef nonnull align 4 dereferenceable(516) %0) #0 align 2 {
  %2 = alloca ptr, align 8
  store ptr %0, ptr %2, align 8, !tbaa !3
  %3 = load ptr, ptr %2, align 8
  br label %4

4:                                                ; preds = %19, %1
  %5 = getelementptr inbounds nuw %"class.arrow_vendored::double_conversion::Bignum", ptr %3, i32 0, i32 0
  %6 = load i16, ptr %5, align 4, !tbaa !12
  %7 = sext i16 %6 to i32
  %8 = icmp sgt i32 %7, 0
  br i1 %8, label %9, label %17

9:                                                ; preds = %4
  %10 = getelementptr inbounds nuw %"class.arrow_vendored::double_conversion::Bignum", ptr %3, i32 0, i32 0
  %11 = load i16, ptr %10, align 4, !tbaa !12
  %12 = sext i16 %11 to i32
  %13 = sub nsw i32 %12, 1
  %14 = call noundef nonnull align 4 dereferenceable(4) ptr @_ZN14arrow_vendored17double_conversion6Bignum8RawBigitEi(ptr noundef nonnull align 4 dereferenceable(516) %3, i32 noundef %13)
  %15 = load i32, ptr %14, align 4, !tbaa !8
  %16 = icmp eq i32 %15, 0
  br label %17

17:                                               ; preds = %9, %4
  %18 = phi i1 [ false, %4 ], [ %16, %9 ]
  br i1 %18, label %19, label %23

19:                                               ; preds = %17
  %20 = getelementptr inbounds nuw %"class.arrow_vendored::double_conversion::Bignum", ptr %3, i32 0, i32 0
  %21 = load i16, ptr %20, align 4, !tbaa !12
  %22 = add i16 %21, -1
  store i16 %22, ptr %20, align 4, !tbaa !12
  br label %4, !llvm.loop !32

23:                                               ; preds = %17
  %24 = getelementptr inbounds nuw %"class.arrow_vendored::double_conversion::Bignum", ptr %3, i32 0, i32 0
  %25 = load i16, ptr %24, align 4, !tbaa !12
  %26 = sext i16 %25 to i32
  %27 = icmp eq i32 %26, 0
  br i1 %27, label %28, label %30

28:                                               ; preds = %23
  %29 = getelementptr inbounds nuw %"class.arrow_vendored::double_conversion::Bignum", ptr %3, i32 0, i32 1
  store i16 0, ptr %29, align 2, !tbaa !14
  br label %30

30:                                               ; preds = %28, %23
  ret void
}

; Function Attrs: mustprogress nounwind uwtable
define noundef nonnull align 4 dereferenceable(4) ptr @_ZN14arrow_vendored17double_conversion6Bignum8RawBigitEi(ptr noundef nonnull align 4 dereferenceable(516) %0, i32 noundef %1) #0 align 2 {
  %3 = alloca ptr, align 8
  %4 = alloca i32, align 4
  store ptr %0, ptr %3, align 8, !tbaa !3
  store i32 %1, ptr %4, align 4, !tbaa !8
  %5 = load ptr, ptr %3, align 8
  %6 = getelementptr inbounds nuw %"class.arrow_vendored::double_conversion::Bignum", ptr %5, i32 0, i32 2
  %7 = load i32, ptr %4, align 4, !tbaa !8
  %8 = sext i32 %7 to i64
  %9 = getelementptr inbounds [128 x i32], ptr %6, i64 0, i64 %8
  ret ptr %9
}

; Function Attrs: mustprogress nounwind uwtable
define linkonce_odr void @_ZN14arrow_vendored17double_conversion6Bignum14EnsureCapacityEi(i32 noundef %0) #0 comdat align 2 {
  %2 = alloca i32, align 4
  store i32 %0, ptr %2, align 4, !tbaa !8
  %3 = load i32, ptr %2, align 4, !tbaa !8
  %4 = icmp sgt i32 %3, 128
  br i1 %4, label %5, label %6

5:                                                ; preds = %1
  call void @abort() #7
  unreachable

6:                                                ; preds = %1
  ret void
}

; Function Attrs: mustprogress uwtable
define void @_ZN14arrow_vendored17double_conversion6Bignum6SquareEv(ptr noundef nonnull align 4 dereferenceable(516) %0) #1 align 2 {
  %2 = alloca ptr, align 8
  %3 = alloca i32, align 4
  %4 = alloca i64, align 8
  %5 = alloca i32, align 4
  %6 = alloca i32, align 4
  %7 = alloca i32, align 4
  %8 = alloca i32, align 4
  %9 = alloca i32, align 4
  %10 = alloca i32, align 4
  %11 = alloca i32, align 4
  %12 = alloca i32, align 4
  %13 = alloca i32, align 4
  %14 = alloca i32, align 4
  %15 = alloca i32, align 4
  %16 = alloca i32, align 4
  store ptr %0, ptr %2, align 8, !tbaa !3
  %17 = load ptr, ptr %2, align 8
  call void @llvm.lifetime.start.p0(i64 4, ptr %3) #6
  %18 = getelementptr inbounds nuw %"class.arrow_vendored::double_conversion::Bignum", ptr %17, i32 0, i32 0
  %19 = load i16, ptr %18, align 4, !tbaa !12
  %20 = sext i16 %19 to i32
  %21 = mul nsw i32 2, %20
  store i32 %21, ptr %3, align 4, !tbaa !8
  %22 = load i32, ptr %3, align 4, !tbaa !8
  call void @_ZN14arrow_vendored17double_conversion6Bignum14EnsureCapacityEi(i32 noundef %22)
  %23 = getelementptr inbounds nuw %"class.arrow_vendored::double_conversion::Bignum", ptr %17, i32 0, i32 0
  %24 = load i16, ptr %23, align 4, !tbaa !12
  %25 = sext i16 %24 to i32
  %26 = icmp sle i32 256, %25
  br i1 %26, label %27, label %28

27:                                               ; preds = %1
  call void @abort() #7
  unreachable

28:                                               ; preds = %1
  call void @llvm.lifetime.start.p0(i64 8, ptr %4) #6
  store i64 0, ptr %4, align 8, !tbaa !15
  call void @llvm.lifetime.start.p0(i64 4, ptr %5) #6
  %29 = getelementptr inbounds nuw %"class.arrow_vendored::double_conversion::Bignum", ptr %17, i32 0, i32 0
  %30 = load i16, ptr %29, align 4, !tbaa !12
  %31 = sext i16 %30 to i32
  store i32 %31, ptr %5, align 4, !tbaa !8
  call void @llvm.lifetime.start.p0(i64 4, ptr %6) #6
  store i32 0, ptr %6, align 4, !tbaa !8
  br label %32

32:                                               ; preds = %47, %28
  %33 = load i32, ptr %6, align 4, !tbaa !8
  %34 = getelementptr inbounds nuw %"class.arrow_vendored::double_conversion::Bignum", ptr %17, i32 0, i32 0
  %35 = load i16, ptr %34, align 4, !tbaa !12
  %36 = sext i16 %35 to i32
  %37 = icmp slt i32 %33, %36
  br i1 %37, label %39, label %38

38:                                               ; preds = %32
  call void @llvm.lifetime.end.p0(i64 4, ptr %6) #6
  br label %50

39:                                               ; preds = %32
  %40 = load i32, ptr %6, align 4, !tbaa !8
  %41 = call noundef nonnull align 4 dereferenceable(4) ptr @_ZN14arrow_vendored17double_conversion6Bignum8RawBigitEi(ptr noundef nonnull align 4 dereferenceable(516) %17, i32 noundef %40)
  %42 = load i32, ptr %41, align 4, !tbaa !8
  %43 = load i32, ptr %5, align 4, !tbaa !8
  %44 = load i32, ptr %6, align 4, !tbaa !8
  %45 = add nsw i32 %43, %44
  %46 = call noundef nonnull align 4 dereferenceable(4) ptr @_ZN14arrow_vendored17double_conversion6Bignum8RawBigitEi(ptr noundef nonnull align 4 dereferenceable(516) %17, i32 noundef %45)
  store i32 %42, ptr %46, align 4, !tbaa !8
  br label %47

47:                                               ; preds = %39
  %48 = load i32, ptr %6, align 4, !tbaa !8
  %49 = add nsw i32 %48, 1
  store i32 %49, ptr %6, align 4, !tbaa !8
  br label %32, !llvm.loop !49

50:                                               ; preds = %38
  call void @llvm.lifetime.start.p0(i64 4, ptr %7) #6
  store i32 0, ptr %7, align 4, !tbaa !8
  br label %51

51:                                               ; preds = %93, %50
  %52 = load i32, ptr %7, align 4, !tbaa !8
  %53 = getelementptr inbounds nuw %"class.arrow_vendored::double_conversion::Bignum", ptr %17, i32 0, i32 0
  %54 = load i16, ptr %53, align 4, !tbaa !12
  %55 = sext i16 %54 to i32
  %56 = icmp slt i32 %52, %55
  br i1 %56, label %58, label %57

57:                                               ; preds = %51
  call void @llvm.lifetime.end.p0(i64 4, ptr %7) #6
  br label %96

58:                                               ; preds = %51
  call void @llvm.lifetime.start.p0(i64 4, ptr %8) #6
  %59 = load i32, ptr %7, align 4, !tbaa !8
  store i32 %59, ptr %8, align 4, !tbaa !8
  call void @llvm.lifetime.start.p0(i64 4, ptr %9) #6
  store i32 0, ptr %9, align 4, !tbaa !8
  br label %60

60:                                               ; preds = %63, %58
  %61 = load i32, ptr %8, align 4, !tbaa !8
  %62 = icmp sge i32 %61, 0
  br i1 %62, label %63, label %85

63:                                               ; preds = %60
  call void @llvm.lifetime.start.p0(i64 4, ptr %10) #6
  %64 = load i32, ptr %5, align 4, !tbaa !8
  %65 = load i32, ptr %8, align 4, !tbaa !8
  %66 = add nsw i32 %64, %65
  %67 = call noundef nonnull align 4 dereferenceable(4) ptr @_ZN14arrow_vendored17double_conversion6Bignum8RawBigitEi(ptr noundef nonnull align 4 dereferenceable(516) %17, i32 noundef %66)
  %68 = load i32, ptr %67, align 4, !tbaa !8
  store i32 %68, ptr %10, align 4, !tbaa !8
  call void @llvm.lifetime.start.p0(i64 4, ptr %11) #6
  %69 = load i32, ptr %5, align 4, !tbaa !8
  %70 = load i32, ptr %9, align 4, !tbaa !8
  %71 = add nsw i32 %69, %70
  %72 = call noundef nonnull align 4 dereferenceable(4) ptr @_ZN14arrow_vendored17double_conversion6Bignum8RawBigitEi(ptr noundef nonnull align 4 dereferenceable(516) %17, i32 noundef %71)
  %73 = load i32, ptr %72, align 4, !tbaa !8
  store i32 %73, ptr %11, align 4, !tbaa !8
  %74 = load i32, ptr %10, align 4, !tbaa !8
  %75 = zext i32 %74 to i64
  %76 = load i32, ptr %11, align 4, !tbaa !8
  %77 = zext i32 %76 to i64
  %78 = mul i64 %75, %77
  %79 = load i64, ptr %4, align 8, !tbaa !15
  %80 = add i64 %79, %78
  store i64 %80, ptr %4, align 8, !tbaa !15
  %81 = load i32, ptr %8, align 4, !tbaa !8
  %82 = add nsw i32 %81, -1
  store i32 %82, ptr %8, align 4, !tbaa !8
  %83 = load i32, ptr %9, align 4, !tbaa !8
  %84 = add nsw i32 %83, 1
  store i32 %84, ptr %9, align 4, !tbaa !8
  call void @llvm.lifetime.end.p0(i64 4, ptr %11) #6
  call void @llvm.lifetime.end.p0(i64 4, ptr %10) #6
  br label %60, !llvm.loop !50

85:                                               ; preds = %60
  %86 = load i64, ptr %4, align 8, !tbaa !15
  %87 = trunc i64 %86 to i32
  %88 = and i32 %87, 268435455
  %89 = load i32, ptr %7, align 4, !tbaa !8
  %90 = call noundef nonnull align 4 dereferenceable(4) ptr @_ZN14arrow_vendored17double_conversion6Bignum8RawBigitEi(ptr noundef nonnull align 4 dereferenceable(516) %17, i32 noundef %89)
  store i32 %88, ptr %90, align 4, !tbaa !8
  %91 = load i64, ptr %4, align 8, !tbaa !15
  %92 = lshr i64 %91, 28
  store i64 %92, ptr %4, align 8, !tbaa !15
  call void @llvm.lifetime.end.p0(i64 4, ptr %9) #6
  call void @llvm.lifetime.end.p0(i64 4, ptr %8) #6
  br label %93

93:                                               ; preds = %85
  %94 = load i32, ptr %7, align 4, !tbaa !8
  %95 = add nsw i32 %94, 1
  store i32 %95, ptr %7, align 4, !tbaa !8
  br label %51, !llvm.loop !51

96:                                               ; preds = %57
  call void @llvm.lifetime.start.p0(i64 4, ptr %12) #6
  %97 = getelementptr inbounds nuw %"class.arrow_vendored::double_conversion::Bignum", ptr %17, i32 0, i32 0
  %98 = load i16, ptr %97, align 4, !tbaa !12
  %99 = sext i16 %98 to i32
  store i32 %99, ptr %12, align 4, !tbaa !8
  br label %100

100:                                              ; preds = %149, %96
  %101 = load i32, ptr %12, align 4, !tbaa !8
  %102 = load i32, ptr %3, align 4, !tbaa !8
  %103 = icmp slt i32 %101, %102
  br i1 %103, label %105, label %104

104:                                              ; preds = %100
  call void @llvm.lifetime.end.p0(i64 4, ptr %12) #6
  br label %152

105:                                              ; preds = %100
  call void @llvm.lifetime.start.p0(i64 4, ptr %13) #6
  %106 = getelementptr inbounds nuw %"class.arrow_vendored::double_conversion::Bignum", ptr %17, i32 0, i32 0
  %107 = load i16, ptr %106, align 4, !tbaa !12
  %108 = sext i16 %107 to i32
  %109 = sub nsw i32 %108, 1
  store i32 %109, ptr %13, align 4, !tbaa !8
  call void @llvm.lifetime.start.p0(i64 4, ptr %14) #6
  %110 = load i32, ptr %12, align 4, !tbaa !8
  %111 = load i32, ptr %13, align 4, !tbaa !8
  %112 = sub nsw i32 %110, %111
  store i32 %112, ptr %14, align 4, !tbaa !8
  br label %113

113:                                              ; preds = %119, %105
  %114 = load i32, ptr %14, align 4, !tbaa !8
  %115 = getelementptr inbounds nuw %"class.arrow_vendored::double_conversion::Bignum", ptr %17, i32 0, i32 0
  %116 = load i16, ptr %115, align 4, !tbaa !12
  %117 = sext i16 %116 to i32
  %118 = icmp slt i32 %114, %117
  br i1 %118, label %119, label %141

119:                                              ; preds = %113
  call void @llvm.lifetime.start.p0(i64 4, ptr %15) #6
  %120 = load i32, ptr %5, align 4, !tbaa !8
  %121 = load i32, ptr %13, align 4, !tbaa !8
  %122 = add nsw i32 %120, %121
  %123 = call noundef nonnull align 4 dereferenceable(4) ptr @_ZN14arrow_vendored17double_conversion6Bignum8RawBigitEi(ptr noundef nonnull align 4 dereferenceable(516) %17, i32 noundef %122)
  %124 = load i32, ptr %123, align 4, !tbaa !8
  store i32 %124, ptr %15, align 4, !tbaa !8
  call void @llvm.lifetime.start.p0(i64 4, ptr %16) #6
  %125 = load i32, ptr %5, align 4, !tbaa !8
  %126 = load i32, ptr %14, align 4, !tbaa !8
  %127 = add nsw i32 %125, %126
  %128 = call noundef nonnull align 4 dereferenceable(4) ptr @_ZN14arrow_vendored17double_conversion6Bignum8RawBigitEi(ptr noundef nonnull align 4 dereferenceable(516) %17, i32 noundef %127)
  %129 = load i32, ptr %128, align 4, !tbaa !8
  store i32 %129, ptr %16, align 4, !tbaa !8
  %130 = load i32, ptr %15, align 4, !tbaa !8
  %131 = zext i32 %130 to i64
  %132 = load i32, ptr %16, align 4, !tbaa !8
  %133 = zext i32 %132 to i64
  %134 = mul i64 %131, %133
  %135 = load i64, ptr %4, align 8, !tbaa !15
  %136 = add i64 %135, %134
  store i64 %136, ptr %4, align 8, !tbaa !15
  %137 = load i32, ptr %13, align 4, !tbaa !8
  %138 = add nsw i32 %137, -1
  store i32 %138, ptr %13, align 4, !tbaa !8
  %139 = load i32, ptr %14, align 4, !tbaa !8
  %140 = add nsw i32 %139, 1
  store i32 %140, ptr %14, align 4, !tbaa !8
  call void @llvm.lifetime.end.p0(i64 4, ptr %16) #6
  call void @llvm.lifetime.end.p0(i64 4, ptr %15) #6
  br label %113, !llvm.loop !52

141:                                              ; preds = %113
  %142 = load i64, ptr %4, align 8, !tbaa !15
  %143 = trunc i64 %142 to i32
  %144 = and i32 %143, 268435455
  %145 = load i32, ptr %12, align 4, !tbaa !8
  %146 = call noundef nonnull align 4 dereferenceable(4) ptr @_ZN14arrow_vendored17double_conversion6Bignum8RawBigitEi(ptr noundef nonnull align 4 dereferenceable(516) %17, i32 noundef %145)
  store i32 %144, ptr %146, align 4, !tbaa !8
  %147 = load i64, ptr %4, align 8, !tbaa !15
  %148 = lshr i64 %147, 28
  store i64 %148, ptr %4, align 8, !tbaa !15
  call void @llvm.lifetime.end.p0(i64 4, ptr %14) #6
  call void @llvm.lifetime.end.p0(i64 4, ptr %13) #6
  br label %149

149:                                              ; preds = %141
  %150 = load i32, ptr %12, align 4, !tbaa !8
  %151 = add nsw i32 %150, 1
  store i32 %151, ptr %12, align 4, !tbaa !8
  br label %100, !llvm.loop !53

152:                                              ; preds = %104
  %153 = load i32, ptr %3, align 4, !tbaa !8
  %154 = trunc i32 %153 to i16
  %155 = getelementptr inbounds nuw %"class.arrow_vendored::double_conversion::Bignum", ptr %17, i32 0, i32 0
  store i16 %154, ptr %155, align 4, !tbaa !12
  %156 = getelementptr inbounds nuw %"class.arrow_vendored::double_conversion::Bignum", ptr %17, i32 0, i32 1
  %157 = load i16, ptr %156, align 2, !tbaa !14
  %158 = sext i16 %157 to i32
  %159 = mul nsw i32 %158, 2
  %160 = trunc i32 %159 to i16
  store i16 %160, ptr %156, align 2, !tbaa !14
  call void @_ZN14arrow_vendored17double_conversion6Bignum5ClampEv(ptr noundef nonnull align 4 dereferenceable(516) %17)
  call void @llvm.lifetime.end.p0(i64 4, ptr %5) #6
  call void @llvm.lifetime.end.p0(i64 8, ptr %4) #6
  call void @llvm.lifetime.end.p0(i64 4, ptr %3) #6
  ret void
}